target datalayout = "e-m:e-p270:32:32-p271:32:32-p272:64:64-i64:64-i128:128-f80:128-n8:16:32:64-S128"
target triple = "x86_64-pc-linux-gnu"

@copy_to_file.buf = internal global [1024 x i8] zeroinitializer, align 16

; Function Attrs: nounwind uwtable
define dso_local i32 @copy_to_file(ptr noundef %0, ptr noundef %1, i64 noundef %2, i64 noundef %3) #0 {
  %5 = alloca i32, align 4
  %6 = alloca ptr, align 8
  %7 = alloca ptr, align 8
  %8 = alloca i64, align 8
  %9 = alloca i64, align 8
  %10 = alloca i64, align 8
  %11 = alloca i64, align 8
  %12 = alloca i64, align 8
  %13 = alloca i64, align 8
  %14 = alloca i32, align 4
  %15 = alloca i64, align 8
  %16 = alloca i64, align 8
  %17 = alloca i64, align 8
  %18 = alloca i32, align 4
  store ptr %0, ptr %6, align 8, !tbaa !15
  store ptr %1, ptr %7, align 8, !tbaa !15
  store i64 %2, ptr %8, align 8, !tbaa !11
  store i64 %3, ptr %9, align 8, !tbaa !11
  call void @llvm.lifetime.start.p0(i64 8, ptr %10) #6
  call void @llvm.lifetime.start.p0(i64 8, ptr %11) #6
  %19 = load i64, ptr %8, align 8, !tbaa !11
  store i64 %19, ptr %11, align 8, !tbaa !11
  call void @llvm.lifetime.start.p0(i64 8, ptr %12) #6
  call void @llvm.lifetime.start.p0(i64 8, ptr %13) #6
  call void @llvm.lifetime.start.p0(i64 4, ptr %14) #6
  store i32 0, ptr %14, align 4, !tbaa !4
  %20 = load i64, ptr %9, align 8, !tbaa !11
  %21 = icmp sle i64 %20, 0
  br i1 %21, label %22, label %23

22:                                               ; preds = %4
  br label %91

23:                                               ; preds = %4
  %24 = load i64, ptr %9, align 8, !tbaa !11
  store i64 %24, ptr %10, align 8, !tbaa !11
  %25 = load ptr, ptr %6, align 8, !tbaa !15
  %26 = call i32 @fseeko64(ptr noundef %25, i64 noundef 0, i32 noundef 0)
  %27 = load i64, ptr %11, align 8, !tbaa !11
  store i64 %27, ptr %13, align 8, !tbaa !11
  store i64 0, ptr %12, align 8, !tbaa !11
  br label %28

28:                                               ; preds = %89, %23
  %29 = load i64, ptr %10, align 8, !tbaa !11
  %30 = icmp ugt i64 %29, 0
  br i1 %30, label %31, label %90

31:                                               ; preds = %28
  call void @llvm.lifetime.start.p0(i64 8, ptr %15) #6
  store i64 0, ptr %15, align 8, !tbaa !11
  call void @llvm.lifetime.start.p0(i64 8, ptr %16) #6
  store i64 0, ptr %16, align 8, !tbaa !11
  call void @llvm.lifetime.start.p0(i64 8, ptr %17) #6
  store i64 0, ptr %17, align 8, !tbaa !11
  %32 = load i64, ptr %10, align 8, !tbaa !11
  %33 = icmp ugt i64 %32, 1024
  br i1 %33, label %34, label %35

34:                                               ; preds = %31
  store i64 1024, ptr %15, align 8, !tbaa !11
  br label %37

35:                                               ; preds = %31
  %36 = load i64, ptr %10, align 8, !tbaa !11
  store i64 %36, ptr %15, align 8, !tbaa !11
  br label %37

37:                                               ; preds = %35, %34
  %38 = load ptr, ptr %6, align 8, !tbaa !15
  %39 = load i64, ptr %13, align 8, !tbaa !11
  %40 = call i32 @fseeko64(ptr noundef %38, i64 noundef %39, i32 noundef 0)
  %41 = load i64, ptr %15, align 8, !tbaa !11
  %42 = load ptr, ptr %6, align 8, !tbaa !15
  %43 = call i64 @fread(ptr noundef @copy_to_file.buf, i64 noundef 1, i64 noundef %41, ptr noundef %42)
  store i64 %43, ptr %16, align 8, !tbaa !11
  %44 = load i64, ptr %16, align 8, !tbaa !11
  %45 = icmp eq i64 0, %44
  br i1 %45, label %46, label %51

46:                                               ; preds = %37
  %47 = load ptr, ptr %6, align 8, !tbaa !15
  %48 = call i32 @ferror(ptr noundef %47) #6
  %49 = icmp ne i32 %48, 0
  br i1 %49, label %50, label %51

50:                                               ; preds = %46
  store i32 -1, ptr %14, align 4, !tbaa !4
  store i32 2, ptr %18, align 4
  br label %87

51:                                               ; preds = %46, %37
  %52 = load i64, ptr %16, align 8, !tbaa !11
  %53 = icmp eq i64 0, %52
  br i1 %53, label %54, label %59

54:                                               ; preds = %51
  %55 = load ptr, ptr %6, align 8, !tbaa !15
  %56 = call i32 @feof(ptr noundef %55) #6
  %57 = icmp ne i32 %56, 0
  br i1 %57, label %58, label %59

58:                                               ; preds = %54
  store i32 2, ptr %18, align 4
  br label %87

59:                                               ; preds = %54, %51
  %60 = load ptr, ptr %7, align 8, !tbaa !15
  %61 = load i64, ptr %12, align 8, !tbaa !11
  %62 = call i32 @fseeko64(ptr noundef %60, i64 noundef %61, i32 noundef 0)
  %63 = load i64, ptr %16, align 8, !tbaa !11
  %64 = load i64, ptr %10, align 8, !tbaa !11
  %65 = sub i64 %64, %63
  store i64 %65, ptr %10, align 8, !tbaa !11
  %66 = load i64, ptr %16, align 8, !tbaa !11
  %67 = load i64, ptr %13, align 8, !tbaa !11
  %68 = add nsw i64 %67, %66
  store i64 %68, ptr %13, align 8, !tbaa !11
  %69 = load i64, ptr %16, align 8, !tbaa !11
  %70 = load i64, ptr %12, align 8, !tbaa !11
  %71 = add nsw i64 %70, %69
  store i64 %71, ptr %12, align 8, !tbaa !11
  %72 = load i64, ptr %16, align 8, !tbaa !11
  %73 = load ptr, ptr %7, align 8, !tbaa !15
  %74 = call i64 @fwrite(ptr noundef @copy_to_file.buf, i64 noundef 1, i64 noundef %72, ptr noundef %73)
  store i64 %74, ptr %17, align 8, !tbaa !11
  %75 = load i64, ptr %17, align 8, !tbaa !11
  %76 = load i64, ptr %16, align 8, !tbaa !11
  %77 = icmp ne i64 %75, %76
  br i1 %77, label %85, label %78

78:                                               ; preds = %59
  %79 = load i64, ptr %17, align 8, !tbaa !11
  %80 = icmp eq i64 0, %79
  br i1 %80, label %81, label %86

81:                                               ; preds = %78
  %82 = load ptr, ptr %7, align 8, !tbaa !15
  %83 = call i32 @ferror(ptr noundef %82) #6
  %84 = icmp ne i32 %83, 0
  br i1 %84, label %85, label %86

85:                                               ; preds = %81, %59
  store i32 -1, ptr %14, align 4, !tbaa !4
  store i32 2, ptr %18, align 4
  br label %87

86:                                               ; preds = %81, %78
  store i32 0, ptr %18, align 4
  br label %87

87:                                               ; preds = %85, %58, %50, %86
  call void @llvm.lifetime.end.p0(i64 8, ptr %17) #6
  call void @llvm.lifetime.end.p0(i64 8, ptr %16) #6
  call void @llvm.lifetime.end.p0(i64 8, ptr %15) #6
  %88 = load i32, ptr %18, align 4
  switch i32 %88, label %93 [
    i32 0, label %89
    i32 2, label %91
  ]

89:                                               ; preds = %87
  br label %28, !llvm.loop !22

90:                                               ; preds = %28
  br label %91

91:                                               ; preds = %90, %87, %22
  %92 = load i32, ptr %14, align 4, !tbaa !4
  store i32 %92, ptr %5, align 4
  store i32 1, ptr %18, align 4
  br label %93

93:                                               ; preds = %91, %87
  call void @llvm.lifetime.end.p0(i64 4, ptr %14) #6
  call void @llvm.lifetime.end.p0(i64 8, ptr %13) #6
  call void @llvm.lifetime.end.p0(i64 8, ptr %12) #6
  call void @llvm.lifetime.end.p0(i64 8, ptr %11) #6
  call void @llvm.lifetime.end.p0(i64 8, ptr %10) #6
  %94 = load i32, ptr %5, align 4
  ret i32 %94
}