; Function Attrs: nofree nounwind uwtable
define dso_local range(i32 -1, 1) i32 @copy_to_file(ptr noundef captures(none) %0, ptr noundef captures(none) %1, i64 noundef %2, i64 noundef %3) local_unnamed_addr #5 {
  %5 = icmp slt i64 %3, 1
  br i1 %5, label %.thread, label %6

6:                                                ; preds = %4
  %7 = tail call i32 @fseeko64(ptr noundef %0, i64 noundef 0, i32 noundef 0)
  br label %8

8:                                                ; preds = %6, %24
  %.03456 = phi i64 [ %2, %6 ], [ %18, %24 ]
  %.03655 = phi i64 [ 0, %6 ], [ %19, %24 ]
  %.03954 = phi i64 [ %3, %6 ], [ %17, %24 ]
  %..039 = tail call i64 @llvm.umin.i64(i64 %.03954, i64 1024)
  %9 = tail call i32 @fseeko64(ptr noundef %0, i64 noundef %.03456, i32 noundef 0)
  %10 = tail call i64 @fread(ptr noundef nonnull @copy_to_file.buf, i64 noundef 1, i64 noundef %..039, ptr noundef %0)
  %11 = icmp eq i64 %10, 0
  br i1 %11, label %12, label %.critedge

12:                                               ; preds = %8
  %13 = tail call i32 @ferror(ptr noundef %0) #12
  %.not43 = icmp eq i32 %13, 0
  br i1 %.not43, label %14, label %.thread

14:                                               ; preds = %12
  %15 = tail call i32 @feof(ptr noundef %0) #12
  %.not44 = icmp eq i32 %15, 0
  br i1 %.not44, label %.critedge, label %.thread

.critedge:                                        ; preds = %8, %14
  %16 = tail call i32 @fseeko64(ptr noundef %1, i64 noundef %.03655, i32 noundef 0)
  %17 = sub i64 %.03954, %10
  %18 = add nsw i64 %10, %.03456
  %19 = add nsw i64 %10, %.03655
  %20 = tail call i64 @fwrite(ptr noundef nonnull @copy_to_file.buf, i64 noundef 1, i64 noundef %10, ptr noundef %1)
  %.not45 = icmp eq i64 %20, %10
  br i1 %.not45, label %21, label %.thread

21:                                               ; preds = %.critedge
  br i1 %11, label %22, label %24

22:                                               ; preds = %21
  %23 = tail call i32 @ferror(ptr noundef %1) #12
  %.not46 = icmp eq i32 %23, 0
  br i1 %.not46, label %24, label %.thread

24:                                               ; preds = %21, %22
  %.not = icmp eq i64 %17, 0
  br i1 %.not, label %.thread, label %8

.thread:                                          ; preds = %.critedge, %22, %14, %12, %24, %4
  %.033 = phi i32 [ 0, %4 ], [ -1, %12 ], [ 0, %14 ], [ -1, %22 ], [ -1, %.critedge ], [ 0, %24 ]
  ret i32 %.033
}